target datalayout = "e-m:e-p270:32:32-p271:32:32-p272:64:64-i64:64-i128:128-f80:128-n8:16:32:64-S128"
target triple = "x86_64-pc-linux-gnu"

%"class.llvm::StringRef" = type { ptr, i64 }

; Function Attrs: mustprogress nounwind uwtable
define linkonce_odr hidden noundef zeroext i1 @_ZN4llvm7isASCIIEc(i8 noundef signext %0) #0 comdat {
  %2 = alloca i8, align 1
  store i8 %0, ptr %2, align 1
  %3 = load i8, ptr %2, align 1
  %4 = zext i8 %3 to i32
  %5 = icmp sle i32 %4, 127
  ret i1 %5
}

; Function Attrs: mustprogress nounwind uwtable
define linkonce_odr hidden noundef ptr @_ZNK4llvm9StringRef3endEv(ptr noundef nonnull align 8 dereferenceable(16) %0) #0 comdat align 2 {
  %2 = alloca ptr, align 8
  store ptr %0, ptr %2, align 8
  %3 = load ptr, ptr %2, align 8
  %4 = getelementptr inbounds nuw %"class.llvm::StringRef", ptr %3, i32 0, i32 0
  %5 = load ptr, ptr %4, align 8
  %6 = getelementptr inbounds nuw %"class.llvm::StringRef", ptr %3, i32 0, i32 1
  %7 = load i64, ptr %6, align 8
  %8 = getelementptr inbounds i8, ptr %5, i64 %7
  ret ptr %8
}

; Function Attrs: mustprogress nounwind uwtable
define linkonce_odr hidden noundef ptr @_ZNK4llvm9StringRef5beginEv(ptr noundef nonnull align 8 dereferenceable(16) %0) #0 comdat align 2 {
  %2 = alloca ptr, align 8
  store ptr %0, ptr %2, align 8
  %3 = load ptr, ptr %2, align 8
  %4 = getelementptr inbounds nuw %"class.llvm::StringRef", ptr %3, i32 0, i32 0
  %5 = load ptr, ptr %4, align 8
  ret ptr %5
}

; Function Attrs: mustprogress nounwind uwtable
define linkonce_odr hidden noundef i64 @_ZNK4llvm9StringRef4sizeEv(ptr noundef nonnull align 8 dereferenceable(16) %0) #0 comdat align 2 {
  %2 = alloca ptr, align 8
  store ptr %0, ptr %2, align 8
  %3 = load ptr, ptr %2, align 8
  %4 = getelementptr inbounds nuw %"class.llvm::StringRef", ptr %3, i32 0, i32 1
  %5 = load i64, ptr %4, align 8
  ret i64 %5
}

; Function Attrs: mustprogress nounwind uwtable
define linkonce_odr hidden noundef ptr @_ZNK4llvm9StringRef4dataEv(ptr noundef nonnull align 8 dereferenceable(16) %0) #0 comdat align 2 {
  %2 = alloca ptr, align 8
  store ptr %0, ptr %2, align 8
  %3 = load ptr, ptr %2, align 8
  %4 = getelementptr inbounds nuw %"class.llvm::StringRef", ptr %3, i32 0, i32 0
  %5 = load ptr, ptr %4, align 8
  ret ptr %5
}

; Function Attrs: mustprogress nounwind uwtable
define linkonce_odr hidden noundef zeroext i1 @_ZN4llvm7isASCIIENS_9StringRefE(ptr %0, i64 %1) #0 comdat {
  %3 = alloca i1, align 1
  %4 = alloca %"class.llvm::StringRef", align 8
  %5 = alloca ptr, align 8
  %6 = alloca ptr, align 8
  %7 = alloca ptr, align 8
  %8 = alloca i8, align 1
  %9 = getelementptr inbounds nuw { ptr, i64 }, ptr %4, i32 0, i32 0
  store ptr %0, ptr %9, align 8
  %10 = getelementptr inbounds nuw { ptr, i64 }, ptr %4, i32 0, i32 1
  store i64 %1, ptr %10, align 8
  store ptr %4, ptr %5, align 8
  %11 = load ptr, ptr %5, align 8
  %12 = call noundef ptr @_ZNK4llvm9StringRef5beginEv(ptr noundef nonnull align 8 dereferenceable(16) %11)
  store ptr %12, ptr %6, align 8
  %13 = load ptr, ptr %5, align 8
  %14 = call noundef ptr @_ZNK4llvm9StringRef3endEv(ptr noundef nonnull align 8 dereferenceable(16) %13)
  store ptr %14, ptr %7, align 8
  br label %15

15:                                               ; preds = %27, %2
  %16 = load ptr, ptr %6, align 8
  %17 = load ptr, ptr %7, align 8
  %18 = icmp ne ptr %16, %17
  br i1 %18, label %19, label %30

19:                                               ; preds = %15
  %20 = load ptr, ptr %6, align 8
  %21 = load i8, ptr %20, align 1
  store i8 %21, ptr %8, align 1
  %22 = load i8, ptr %8, align 1
  %23 = call noundef zeroext i1 @_ZN4llvm7isASCIIEc(i8 noundef signext %22)
  %24 = xor i1 %23, true
  br i1 %24, label %25, label %26

25:                                               ; preds = %19
  store i1 false, ptr %3, align 1
  br label %31

26:                                               ; preds = %19
  br label %27

27:                                               ; preds = %26
  %28 = load ptr, ptr %6, align 8
  %29 = getelementptr inbounds i8, ptr %28, i32 1
  store ptr %29, ptr %6, align 8
  br label %15

30:                                               ; preds = %15
  store i1 true, ptr %3, align 1
  br label %31

31:                                               ; preds = %30, %25
  %32 = load i1, ptr %3, align 1
  ret i1 %32
}

; Function Attrs: mustprogress nounwind uwtable
define dso_local noundef zeroext i1 @_ZN4llvm4json6isUTF8ENS_9StringRefEPm(ptr %0, i64 %1, ptr noundef %2) #0 {
  %4 = alloca i1, align 1
  %5 = alloca %"class.llvm::StringRef", align 8
  %6 = alloca ptr, align 8
  %7 = alloca %"class.llvm::StringRef", align 8
  %8 = alloca ptr, align 8
  %9 = alloca ptr, align 8
  %10 = getelementptr inbounds nuw { ptr, i64 }, ptr %5, i32 0, i32 0
  store ptr %0, ptr %10, align 8
  %11 = getelementptr inbounds nuw { ptr, i64 }, ptr %5, i32 0, i32 1
  store i64 %1, ptr %11, align 8
  store ptr %2, ptr %6, align 8
  call void @llvm.memcpy.p0.p0.i64(ptr align 8 %7, ptr align 8 %5, i64 16, i1 false)
  %12 = getelementptr inbounds nuw { ptr, i64 }, ptr %7, i32 0, i32 0
  %13 = load ptr, ptr %12, align 8
  %14 = getelementptr inbounds nuw { ptr, i64 }, ptr %7, i32 0, i32 1
  %15 = load i64, ptr %14, align 8
  %16 = call noundef zeroext i1 @_ZN4llvm7isASCIIENS_9StringRefE(ptr %13, i64 %15)
  br i1 %16, label %17, label %18

17:                                               ; preds = %3
  store i1 true, ptr %4, align 1
  br label %38

18:                                               ; preds = %3
  %19 = call noundef ptr @_ZNK4llvm9StringRef4dataEv(ptr noundef nonnull align 8 dereferenceable(16) %5)
  store ptr %19, ptr %8, align 8
  %20 = load ptr, ptr %8, align 8
  store ptr %20, ptr %9, align 8
  %21 = load ptr, ptr %8, align 8
  %22 = call noundef i64 @_ZNK4llvm9StringRef4sizeEv(ptr noundef nonnull align 8 dereferenceable(16) %5)
  %23 = getelementptr inbounds i8, ptr %21, i64 %22
  %24 = call noundef zeroext i8 @_ZN4llvm17isLegalUTF8StringEPPKhS1_(ptr noundef %9, ptr noundef %23)
  %25 = icmp ne i8 %24, 0
  br i1 %25, label %26, label %27

26:                                               ; preds = %18
  store i1 true, ptr %4, align 1
  br label %38

27:                                               ; preds = %18
  %28 = load ptr, ptr %6, align 8
  %29 = icmp ne ptr %28, null
  br i1 %29, label %30, label %37

30:                                               ; preds = %27
  %31 = load ptr, ptr %9, align 8
  %32 = load ptr, ptr %8, align 8
  %33 = ptrtoint ptr %31 to i64
  %34 = ptrtoint ptr %32 to i64
  %35 = sub i64 %33, %34
  %36 = load ptr, ptr %6, align 8
  store i64 %35, ptr %36, align 8
  br label %37

37:                                               ; preds = %30, %27
  store i1 false, ptr %4, align 1
  br label %38

38:                                               ; preds = %37, %26, %17
  %39 = load i1, ptr %4, align 1
  ret i1 %39
}