; Function Attrs: mustprogress nounwind uwtable
define dso_local noundef zeroext i1 @_ZN4llvm4json6isUTF8ENS_9StringRefEPm(ptr %0, i64 %1, ptr noundef writeonly %2) local_unnamed_addr #0 {
  %4 = alloca ptr, align 8
  %5 = getelementptr inbounds i8, ptr %0, i64 %1
  %.not9.i = icmp eq i64 %1, 0
  br i1 %.not9.i, label %_ZN4llvm7isASCIIENS_9StringRefE.exit.thread, label %.lr.ph.i

6:                                                ; preds = %.lr.ph.i
  %7 = getelementptr inbounds i8, ptr %.0710.i, i64 1
  %.not.i = icmp eq ptr %7, %5
  br i1 %.not.i, label %_ZN4llvm7isASCIIENS_9StringRefE.exit.thread, label %.lr.ph.i

.lr.ph.i:                                         ; preds = %3, %6
  %.0710.i = phi ptr [ %7, %6 ], [ %0, %3 ]
  %8 = load i8, ptr %.0710.i, align 1
  %9 = icmp sgt i8 %8, -1
  br i1 %9, label %6, label %_ZN4llvm7isASCIIENS_9StringRefE.exit

_ZN4llvm7isASCIIENS_9StringRefE.exit:             ; preds = %.lr.ph.i
  store ptr %0, ptr %4, align 8
  %10 = call noundef zeroext i8 @_ZN4llvm17isLegalUTF8StringEPPKhS1_(ptr noundef nonnull %4, ptr noundef nonnull %5) #24
  %.not = icmp eq i8 %10, 0
  br i1 %.not, label %11, label %_ZN4llvm7isASCIIENS_9StringRefE.exit.thread

11:                                               ; preds = %_ZN4llvm7isASCIIENS_9StringRefE.exit
  %.not7 = icmp eq ptr %2, null
  br i1 %.not7, label %_ZN4llvm7isASCIIENS_9StringRefE.exit.thread, label %12

12:                                               ; preds = %11
  %13 = load ptr, ptr %4, align 8
  %14 = ptrtoint ptr %13 to i64
  %15 = ptrtoint ptr %0 to i64
  %16 = sub i64 %14, %15
  store i64 %16, ptr %2, align 8
  br label %_ZN4llvm7isASCIIENS_9StringRefE.exit.thread

_ZN4llvm7isASCIIENS_9StringRefE.exit.thread:      ; preds = %6, %3, %11, %12, %_ZN4llvm7isASCIIENS_9StringRefE.exit
  %.0 = phi i1 [ true, %_ZN4llvm7isASCIIENS_9StringRefE.exit ], [ false, %12 ], [ false, %11 ], [ true, %3 ], [ true, %6 ]
  ret i1 %.0
}